target datalayout = "e-m:e-p270:32:32-p271:32:32-p272:64:64-i64:64-i128:128-f80:128-n8:16:32:64-S128"
target triple = "x86_64-pc-linux-gnu"

%class.Register = type { i32 }
%class.XMMRegister = type { i32 }
%class.Address = type { %class.Register, %class.Register, %class.XMMRegister, i32, i32, i8, [3 x i8], %class.RelocationHolder }
%class.RelocationHolder = type { [40 x i8] }
%class.StubCodeGenerator = type { ptr, i8, ptr }
%class.AddressLiteral = type { %class.RelocationHolder, i8, ptr }
%class.ExternalAddress = type { %class.AddressLiteral }
%class.Relocation = type <{ ptr, ptr, i32, [4 x i8] }>

@_ZL7c_rarg0 = internal constant %class.Register { i32 7 }, align 4
@_ZL7c_rarg1 = internal constant %class.Register { i32 6 }, align 4
@_ZL7c_rarg2 = internal constant %class.Register { i32 2 }, align 4
@_ZL3rax = internal constant %class.Register zeroinitializer, align 4
@_ZL5noreg = internal constant %class.Register { i32 -1 }, align 4
@_ZL6xnoreg = internal constant %class.XMMRegister { i32 -1 }, align 4
@_ZTV10Relocation = external unnamed_addr constant { [11 x ptr] }, align 8

; Function Attrs: mustprogress nounwind uwtable
define linkonce_odr hidden void @_ZN10RelocationC2EN9relocInfo9relocTypeE(ptr noundef nonnull align 8 dereferenceable(20) %0, i32 noundef %1) unnamed_addr #1 comdat align 2 {
  %3 = alloca ptr, align 8
  %4 = alloca i32, align 4
  store ptr %0, ptr %3, align 8
  store i32 %1, ptr %4, align 4
  %5 = load ptr, ptr %3, align 8
  store ptr getelementptr inbounds inrange(-16, 72) ({ [11 x ptr] }, ptr @_ZTV10Relocation, i32 0, i32 0, i32 2), ptr %5, align 8
  %6 = getelementptr inbounds %class.Relocation, ptr %5, i32 0, i32 1
  store ptr null, ptr %6, align 8
  %7 = getelementptr inbounds %class.Relocation, ptr %5, i32 0, i32 2
  %8 = load i32, ptr %4, align 4
  store i32 %8, ptr %7, align 8
  ret void
}

; Function Attrs: mustprogress nounwind uwtable
define linkonce_odr hidden void @_ZN10RelocationC2Ev(ptr noundef nonnull align 8 dereferenceable(20) %0) unnamed_addr #1 comdat align 2 {
  %2 = alloca ptr, align 8
  store ptr %0, ptr %2, align 8
  %3 = load ptr, ptr %2, align 8
  call void @_ZN10RelocationC2EN9relocInfo9relocTypeE(ptr noundef nonnull align 8 dereferenceable(20) %3, i32 noundef 0)
  ret void
}

; Function Attrs: mustprogress nounwind uwtable
define linkonce_odr hidden void @_ZN16RelocationHolder18emplace_relocationI10RelocationJEEEvDpRKT0_(ptr noundef nonnull align 8 dereferenceable(40) %0) #1 comdat align 2 {
  %2 = alloca ptr, align 8
  %3 = alloca ptr, align 8
  store ptr %0, ptr %2, align 8
  %4 = load ptr, ptr %2, align 8
  %5 = getelementptr inbounds %class.RelocationHolder, ptr %4, i32 0, i32 0
  %6 = getelementptr inbounds [40 x i8], ptr %5, i64 0, i64 0
  call void @_ZN10RelocationC2Ev(ptr noundef nonnull align 8 dereferenceable(20) %6)
  store ptr %6, ptr %3, align 8
  ret void
}

; Function Attrs: mustprogress nounwind uwtable
define linkonce_odr hidden noundef ptr @_ZNK16RelocationHolder5relocEv(ptr noundef nonnull align 8 dereferenceable(40) %0) #1 comdat align 2 {
  %2 = alloca ptr, align 8
  store ptr %0, ptr %2, align 8
  %3 = load ptr, ptr %2, align 8
  %4 = getelementptr inbounds %class.RelocationHolder, ptr %3, i32 0, i32 0
  %5 = getelementptr inbounds [40 x i8], ptr %4, i64 0, i64 0
  ret ptr %5
}

; Function Attrs: mustprogress nounwind uwtable
define linkonce_odr hidden noundef zeroext i1 @_ZN24external_word_Relocation16can_be_relocatedEPh(ptr noundef %0) #1 comdat align 2 {
  %2 = alloca ptr, align 8
  store ptr %0, ptr %2, align 8
  %3 = load ptr, ptr %2, align 8
  %4 = icmp ne ptr %3, null
  ret i1 %4
}

; Function Attrs: mustprogress nounwind uwtable
define linkonce_odr hidden void @_ZN16RelocationHolderC2I10RelocationJEEENS_9ConstructIT_EEDpRKT0_(ptr noundef nonnull align 8 dereferenceable(40) %0) unnamed_addr #1 comdat align 2 {
  %2 = alloca ptr, align 8
  store ptr %0, ptr %2, align 8
  %3 = load ptr, ptr %2, align 8
  call void @_ZN16RelocationHolder18emplace_relocationI10RelocationJEEEvDpRKT0_(ptr noundef nonnull align 8 dereferenceable(40) %3)
  ret void
}

; Function Attrs: mustprogress nounwind uwtable
define linkonce_odr hidden void @_ZN16RelocationHolderC2ERKS_(ptr noundef nonnull align 8 dereferenceable(40) %0, ptr noundef nonnull align 8 dereferenceable(40) %1) unnamed_addr #1 comdat align 2 {
  %3 = alloca ptr, align 8
  %4 = alloca ptr, align 8
  store ptr %0, ptr %3, align 8
  store ptr %1, ptr %4, align 8
  %5 = load ptr, ptr %3, align 8
  %6 = load ptr, ptr %4, align 8
  %7 = call noundef ptr @_ZNK16RelocationHolder5relocEv(ptr noundef nonnull align 8 dereferenceable(40) %6)
  %8 = load ptr, ptr %7, align 8
  %9 = getelementptr inbounds ptr, ptr %8, i64 2
  %10 = load ptr, ptr %9, align 8
  call void %10(ptr noundef nonnull align 8 dereferenceable(20) %7, ptr noundef nonnull align 8 dereferenceable(40) %5)
  ret void
}

; Function Attrs: mustprogress nounwind uwtable
define linkonce_odr hidden noundef i32 @_ZN15ExternalAddress16reloc_for_targetEPh(ptr noundef %0) #1 comdat align 2 {
  %2 = alloca ptr, align 8
  store ptr %0, ptr %2, align 8
  %3 = load ptr, ptr %2, align 8
  %4 = call noundef zeroext i1 @_ZN24external_word_Relocation16can_be_relocatedEPh(ptr noundef %3)
  %5 = select i1 %4, i32 7, i32 0
  ret i32 %5
}

; Function Attrs: mustprogress nounwind uwtable
define linkonce_odr hidden void @_ZN7AddressC2ERKS_(ptr noundef nonnull align 8 dereferenceable(64) %0, ptr noundef nonnull align 8 dereferenceable(64) %1) unnamed_addr #1 comdat align 2 {
  %3 = alloca ptr, align 8
  %4 = alloca ptr, align 8
  store ptr %0, ptr %3, align 8
  store ptr %1, ptr %4, align 8
  %5 = load ptr, ptr %3, align 8
  %6 = getelementptr inbounds %class.Address, ptr %5, i32 0, i32 0
  %7 = load ptr, ptr %4, align 8
  %8 = getelementptr inbounds %class.Address, ptr %7, i32 0, i32 0
  call void @llvm.memcpy.p0.p0.i64(ptr align 8 %6, ptr align 8 %8, i64 21, i1 false)
  %9 = getelementptr inbounds %class.Address, ptr %5, i32 0, i32 7
  %10 = load ptr, ptr %4, align 8
  %11 = getelementptr inbounds %class.Address, ptr %10, i32 0, i32 7
  call void @_ZN16RelocationHolderC2ERKS_(ptr noundef nonnull align 8 dereferenceable(40) %9, ptr noundef nonnull align 8 dereferenceable(40) %11)
  ret void
}

; Function Attrs: mustprogress nounwind uwtable
define linkonce_odr hidden void @_ZN16RelocationHolderC2Ev(ptr noundef nonnull align 8 dereferenceable(40) %0) unnamed_addr #1 comdat align 2 {
  %2 = alloca ptr, align 8
  store ptr %0, ptr %2, align 8
  %3 = load ptr, ptr %2, align 8
  call void @_ZN16RelocationHolderC2I10RelocationJEEENS_9ConstructIT_EEDpRKT0_(ptr noundef nonnull align 8 dereferenceable(40) %3)
  ret void
}

; Function Attrs: mustprogress nounwind uwtable
define linkonce_odr hidden void @_ZN14AddressLiteralC2ERKS_(ptr noundef nonnull align 8 dereferenceable(56) %0, ptr noundef nonnull align 8 dereferenceable(56) %1) unnamed_addr #1 comdat align 2 {
  %3 = alloca ptr, align 8
  %4 = alloca ptr, align 8
  store ptr %0, ptr %3, align 8
  store ptr %1, ptr %4, align 8
  %5 = load ptr, ptr %3, align 8
  %6 = getelementptr inbounds %class.AddressLiteral, ptr %5, i32 0, i32 0
  %7 = load ptr, ptr %4, align 8
  %8 = getelementptr inbounds %class.AddressLiteral, ptr %7, i32 0, i32 0
  call void @_ZN16RelocationHolderC2ERKS_(ptr noundef nonnull align 8 dereferenceable(40) %6, ptr noundef nonnull align 8 dereferenceable(40) %8)
  %9 = getelementptr inbounds %class.AddressLiteral, ptr %5, i32 0, i32 1
  %10 = load ptr, ptr %4, align 8
  %11 = getelementptr inbounds %class.AddressLiteral, ptr %10, i32 0, i32 1
  call void @llvm.memcpy.p0.p0.i64(ptr align 8 %9, ptr align 8 %11, i64 16, i1 false)
  ret void
}

; Function Attrs: mustprogress nounwind uwtable
define linkonce_odr hidden void @_ZN15ExternalAddressC2EPh(ptr noundef nonnull align 8 dereferenceable(56) %0, ptr noundef %1) unnamed_addr #1 comdat align 2 {
  %3 = alloca ptr, align 8
  %4 = alloca ptr, align 8
  store ptr %0, ptr %3, align 8
  store ptr %1, ptr %4, align 8
  %5 = load ptr, ptr %3, align 8
  %6 = load ptr, ptr %4, align 8
  %7 = load ptr, ptr %4, align 8
  %8 = call noundef i32 @_ZN15ExternalAddress16reloc_for_targetEPh(ptr noundef %7)
  call void @_ZN14AddressLiteralC2EPhN9relocInfo9relocTypeE(ptr noundef nonnull align 8 dereferenceable(56) %5, ptr noundef %6, i32 noundef %8)
  ret void
}

; Function Attrs: mustprogress nounwind uwtable
define linkonce_odr hidden void @_ZN14MacroAssembler3leaE8Register7Address(ptr noundef nonnull align 8 dereferenceable(40) %0, i32 %1, ptr noundef %2) #1 comdat align 2 {
  %4 = alloca %class.Register, align 4
  %5 = alloca ptr, align 8
  %6 = alloca ptr, align 8
  %7 = alloca %class.Register, align 4
  %8 = alloca %class.Address, align 8
  %9 = getelementptr inbounds %class.Register, ptr %4, i32 0, i32 0
  store i32 %1, ptr %9, align 4
  store ptr %0, ptr %5, align 8
  store ptr %2, ptr %6, align 8
  %10 = load ptr, ptr %5, align 8
  call void @llvm.memcpy.p0.p0.i64(ptr align 4 %7, ptr align 4 %4, i64 4, i1 false)
  call void @_ZN7AddressC2ERKS_(ptr noundef nonnull align 8 dereferenceable(64) %8, ptr noundef nonnull align 8 dereferenceable(64) %2)
  %11 = getelementptr inbounds %class.Register, ptr %7, i32 0, i32 0
  %12 = load i32, ptr %11, align 4
  call void @_ZN9Assembler3leaE8Register7Address(ptr noundef nonnull align 8 dereferenceable(40) %10, i32 %12, ptr noundef %8)
  ret void
}

; Function Attrs: mustprogress nounwind uwtable
define linkonce_odr hidden void @_ZN7AddressC2E8RegisterS0_NS_11ScaleFactorEi(ptr noundef nonnull align 8 dereferenceable(64) %0, i32 %1, i32 %2, i32 noundef %3, i32 noundef %4) unnamed_addr #1 comdat align 2 {
  %6 = alloca %class.Register, align 4
  %7 = alloca %class.Register, align 4
  %8 = alloca ptr, align 8
  %9 = alloca i32, align 4
  %10 = alloca i32, align 4
  %11 = getelementptr inbounds %class.Register, ptr %6, i32 0, i32 0
  store i32 %1, ptr %11, align 4
  %12 = getelementptr inbounds %class.Register, ptr %7, i32 0, i32 0
  store i32 %2, ptr %12, align 4
  store ptr %0, ptr %8, align 8
  store i32 %3, ptr %9, align 4
  store i32 %4, ptr %10, align 4
  %13 = load ptr, ptr %8, align 8
  %14 = getelementptr inbounds %class.Address, ptr %13, i32 0, i32 0
  call void @llvm.memcpy.p0.p0.i64(ptr align 8 %14, ptr align 4 %6, i64 4, i1 false)
  %15 = getelementptr inbounds %class.Address, ptr %13, i32 0, i32 1
  call void @llvm.memcpy.p0.p0.i64(ptr align 4 %15, ptr align 4 %7, i64 4, i1 false)
  %16 = getelementptr inbounds %class.Address, ptr %13, i32 0, i32 2
  call void @llvm.memcpy.p0.p0.i64(ptr align 8 %16, ptr align 4 @_ZL6xnoreg, i64 4, i1 false)
  %17 = getelementptr inbounds %class.Address, ptr %13, i32 0, i32 3
  %18 = load i32, ptr %9, align 4
  store i32 %18, ptr %17, align 4
  %19 = getelementptr inbounds %class.Address, ptr %13, i32 0, i32 4
  %20 = load i32, ptr %10, align 4
  store i32 %20, ptr %19, align 8
  %21 = getelementptr inbounds %class.Address, ptr %13, i32 0, i32 5
  store i8 0, ptr %21, align 4
  %22 = getelementptr inbounds %class.Address, ptr %13, i32 0, i32 7
  call void @_ZN16RelocationHolderC2Ev(ptr noundef nonnull align 8 dereferenceable(40) %22)
  ret void
}

; Function Attrs: mustprogress nounwind uwtable
define linkonce_odr hidden void @_ZN14MacroAssembler6cmpptrE8RegisterS0_(ptr noundef nonnull align 8 dereferenceable(40) %0, i32 %1, i32 %2) #1 comdat align 2 {
  %4 = alloca %class.Register, align 4
  %5 = alloca %class.Register, align 4
  %6 = alloca ptr, align 8
  %7 = alloca %class.Register, align 4
  %8 = alloca %class.Register, align 4
  %9 = getelementptr inbounds %class.Register, ptr %4, i32 0, i32 0
  store i32 %1, ptr %9, align 4
  %10 = getelementptr inbounds %class.Register, ptr %5, i32 0, i32 0
  store i32 %2, ptr %10, align 4
  store ptr %0, ptr %6, align 8
  %11 = load ptr, ptr %6, align 8
  call void @llvm.memcpy.p0.p0.i64(ptr align 4 %7, ptr align 4 %4, i64 4, i1 false)
  call void @llvm.memcpy.p0.p0.i64(ptr align 4 %8, ptr align 4 %5, i64 4, i1 false)
  %12 = getelementptr inbounds %class.Register, ptr %7, i32 0, i32 0
  %13 = load i32, ptr %12, align 4
  %14 = getelementptr inbounds %class.Register, ptr %8, i32 0, i32 0
  %15 = load i32, ptr %14, align 4
  call void @_ZN9Assembler4cmpqE8RegisterS0_(ptr noundef nonnull align 8 dereferenceable(40) %11, i32 %13, i32 %15)
  ret void
}

; Function Attrs: mustprogress nounwind uwtable
define hidden void @_ZN13StubGenerator18array_overlap_testEPhP5LabelN7Address11ScaleFactorE(ptr noundef nonnull align 8 dereferenceable(24) %0, ptr noundef %1, ptr noundef %2, i32 noundef %3) #1 align 2 {
  %5 = alloca ptr, align 8
  %6 = alloca ptr, align 8
  %7 = alloca ptr, align 8
  %8 = alloca i32, align 4
  %9 = alloca %class.Register, align 4
  %10 = alloca %class.Register, align 4
  %11 = alloca %class.Register, align 4
  %12 = alloca %class.Register, align 4
  %13 = alloca %class.Register, align 4
  %14 = alloca %class.Register, align 4
  %15 = alloca %class.Register, align 4
  %16 = alloca %class.Address, align 8
  %17 = alloca %class.Register, align 4
  %18 = alloca %class.Register, align 4
  %19 = alloca %class.ExternalAddress, align 8
  %20 = alloca %class.AddressLiteral, align 8
  %21 = alloca %class.Register, align 4
  %22 = alloca %class.Register, align 4
  %23 = alloca %class.Register, align 4
  %24 = alloca %class.AddressLiteral, align 8
  %25 = alloca %class.Register, align 4
  %26 = alloca %class.Register, align 4
  %27 = alloca %class.Register, align 4
  store ptr %0, ptr %5, align 8
  store ptr %1, ptr %6, align 8
  store ptr %2, ptr %7, align 8
  store i32 %3, ptr %8, align 4
  %28 = load ptr, ptr %5, align 8
  call void @llvm.memcpy.p0.p0.i64(ptr align 4 %9, ptr align 4 @_ZL7c_rarg0, i64 4, i1 false)
  call void @llvm.memcpy.p0.p0.i64(ptr align 4 %10, ptr align 4 @_ZL7c_rarg1, i64 4, i1 false)
  call void @llvm.memcpy.p0.p0.i64(ptr align 4 %11, ptr align 4 @_ZL7c_rarg2, i64 4, i1 false)
  call void @llvm.memcpy.p0.p0.i64(ptr align 4 %12, ptr align 4 @_ZL3rax, i64 4, i1 false)
  %29 = getelementptr inbounds %class.StubCodeGenerator, ptr %28, i32 0, i32 2
  %30 = load ptr, ptr %29, align 8
  call void @llvm.memcpy.p0.p0.i64(ptr align 4 %13, ptr align 4 %10, i64 4, i1 false)
  call void @llvm.memcpy.p0.p0.i64(ptr align 4 %14, ptr align 4 %9, i64 4, i1 false)
  %31 = getelementptr inbounds %class.Register, ptr %13, i32 0, i32 0
  %32 = load i32, ptr %31, align 4
  %33 = getelementptr inbounds %class.Register, ptr %14, i32 0, i32 0
  %34 = load i32, ptr %33, align 4
  call void @_ZN14MacroAssembler6cmpptrE8RegisterS0_(ptr noundef nonnull align 8 dereferenceable(40) %30, i32 %32, i32 %34)
  %35 = getelementptr inbounds %class.StubCodeGenerator, ptr %28, i32 0, i32 2
  %36 = load ptr, ptr %35, align 8
  call void @llvm.memcpy.p0.p0.i64(ptr align 4 %15, ptr align 4 %12, i64 4, i1 false)
  call void @llvm.memcpy.p0.p0.i64(ptr align 4 %17, ptr align 4 %9, i64 4, i1 false)
  call void @llvm.memcpy.p0.p0.i64(ptr align 4 %18, ptr align 4 %11, i64 4, i1 false)
  %37 = load i32, ptr %8, align 4
  %38 = getelementptr inbounds %class.Register, ptr %17, i32 0, i32 0
  %39 = load i32, ptr %38, align 4
  %40 = getelementptr inbounds %class.Register, ptr %18, i32 0, i32 0
  %41 = load i32, ptr %40, align 4
  call void @_ZN7AddressC2E8RegisterS0_NS_11ScaleFactorEi(ptr noundef nonnull align 8 dereferenceable(64) %16, i32 %39, i32 %41, i32 noundef %37, i32 noundef 0)
  %42 = getelementptr inbounds %class.Register, ptr %15, i32 0, i32 0
  %43 = load i32, ptr %42, align 4
  call void @_ZN14MacroAssembler3leaE8Register7Address(ptr noundef nonnull align 8 dereferenceable(40) %36, i32 %43, ptr noundef %16)
  %44 = load ptr, ptr %7, align 8
  %45 = icmp eq ptr %44, null
  br i1 %45, label %46, label %62

46:                                               ; preds = %4
  %47 = load ptr, ptr %6, align 8
  call void @_ZN15ExternalAddressC2EPh(ptr noundef nonnull align 8 dereferenceable(56) %19, ptr noundef %47)
  %48 = getelementptr inbounds %class.StubCodeGenerator, ptr %28, i32 0, i32 2
  %49 = load ptr, ptr %48, align 8
  call void @_ZN14AddressLiteralC2ERKS_(ptr noundef nonnull align 8 dereferenceable(56) %20, ptr noundef nonnull align 8 dereferenceable(56) %19)
  call void @llvm.memcpy.p0.p0.i64(ptr align 4 %21, ptr align 4 @_ZL5noreg, i64 4, i1 false)
  %50 = getelementptr inbounds %class.Register, ptr %21, i32 0, i32 0
  %51 = load i32, ptr %50, align 4
  call void @_ZN14MacroAssembler7jump_ccEN9Assembler9ConditionE14AddressLiteral8Register(ptr noundef nonnull align 8 dereferenceable(40) %49, i32 noundef 6, ptr noundef %20, i32 %51)
  %52 = getelementptr inbounds %class.StubCodeGenerator, ptr %28, i32 0, i32 2
  %53 = load ptr, ptr %52, align 8
  call void @llvm.memcpy.p0.p0.i64(ptr align 4 %22, ptr align 4 %10, i64 4, i1 false)
  call void @llvm.memcpy.p0.p0.i64(ptr align 4 %23, ptr align 4 %12, i64 4, i1 false)
  %54 = getelementptr inbounds %class.Register, ptr %22, i32 0, i32 0
  %55 = load i32, ptr %54, align 4
  %56 = getelementptr inbounds %class.Register, ptr %23, i32 0, i32 0
  %57 = load i32, ptr %56, align 4
  call void @_ZN14MacroAssembler6cmpptrE8RegisterS0_(ptr noundef nonnull align 8 dereferenceable(40) %53, i32 %55, i32 %57)
  %58 = getelementptr inbounds %class.StubCodeGenerator, ptr %28, i32 0, i32 2
  %59 = load ptr, ptr %58, align 8
  call void @_ZN14AddressLiteralC2ERKS_(ptr noundef nonnull align 8 dereferenceable(56) %24, ptr noundef nonnull align 8 dereferenceable(56) %19)
  call void @llvm.memcpy.p0.p0.i64(ptr align 4 %25, ptr align 4 @_ZL5noreg, i64 4, i1 false)
  %60 = getelementptr inbounds %class.Register, ptr %25, i32 0, i32 0
  %61 = load i32, ptr %60, align 4
  call void @_ZN14MacroAssembler7jump_ccEN9Assembler9ConditionE14AddressLiteral8Register(ptr noundef nonnull align 8 dereferenceable(40) %59, i32 noundef 3, ptr noundef %24, i32 %61)
  br label %75

62:                                               ; preds = %4
  %63 = getelementptr inbounds %class.StubCodeGenerator, ptr %28, i32 0, i32 2
  %64 = load ptr, ptr %63, align 8
  %65 = load ptr, ptr %7, align 8
  call void @_ZN9Assembler3jccENS_9ConditionER5Labelb(ptr noundef nonnull align 8 dereferenceable(40) %64, i32 noundef 6, ptr noundef nonnull align 8 dereferenceable(33) %65, i1 noundef zeroext true)
  %66 = getelementptr inbounds %class.StubCodeGenerator, ptr %28, i32 0, i32 2
  %67 = load ptr, ptr %66, align 8
  call void @llvm.memcpy.p0.p0.i64(ptr align 4 %26, ptr align 4 %10, i64 4, i1 false)
  call void @llvm.memcpy.p0.p0.i64(ptr align 4 %27, ptr align 4 %12, i64 4, i1 false)
  %68 = getelementptr inbounds %class.Register, ptr %26, i32 0, i32 0
  %69 = load i32, ptr %68, align 4
  %70 = getelementptr inbounds %class.Register, ptr %27, i32 0, i32 0
  %71 = load i32, ptr %70, align 4
  call void @_ZN14MacroAssembler6cmpptrE8RegisterS0_(ptr noundef nonnull align 8 dereferenceable(40) %67, i32 %69, i32 %71)
  %72 = getelementptr inbounds %class.StubCodeGenerator, ptr %28, i32 0, i32 2
  %73 = load ptr, ptr %72, align 8
  %74 = load ptr, ptr %7, align 8
  call void @_ZN9Assembler3jccENS_9ConditionER5Labelb(ptr noundef nonnull align 8 dereferenceable(40) %73, i32 noundef 3, ptr noundef nonnull align 8 dereferenceable(33) %74, i1 noundef zeroext true)
  br label %75

75:                                               ; preds = %62, %46
  ret void
}