; Function Attrs: mustprogress nounwind uwtable
define hidden void @_ZN13StubGenerator18array_overlap_testEPhP5LabelN7Address11ScaleFactorE(ptr nocapture noundef nonnull readonly align 8 dereferenceable(24) %0, ptr noundef %1, ptr noundef %2, i32 noundef %3) local_unnamed_addr #0 align 2 {
  %5 = alloca %class.Address, align 8
  %6 = alloca %class.Address, align 8
  %7 = alloca %class.ExternalAddress, align 8
  %8 = alloca %class.AddressLiteral, align 8
  %9 = alloca %class.AddressLiteral, align 8
  %10 = getelementptr inbounds i8, ptr %0, i64 16
  %11 = load ptr, ptr %10, align 8
  tail call void @_ZN9Assembler4cmpqE8RegisterS0_(ptr noundef nonnull align 8 dereferenceable(40) %11, i32 6, i32 7) #8
  %12 = load ptr, ptr %10, align 8
  store i32 7, ptr %6, align 8
  %13 = getelementptr inbounds i8, ptr %6, i64 4
  store i32 2, ptr %13, align 4
  %14 = getelementptr inbounds i8, ptr %6, i64 8
  store i32 -1, ptr %14, align 8
  %15 = getelementptr inbounds i8, ptr %6, i64 12
  store i32 %3, ptr %15, align 4
  %16 = getelementptr inbounds i8, ptr %6, i64 16
  store i32 0, ptr %16, align 8
  %17 = getelementptr inbounds i8, ptr %6, i64 20
  store i8 0, ptr %17, align 4
  %18 = getelementptr inbounds i8, ptr %6, i64 24
  store ptr getelementptr inbounds inrange(-16, 72) (i8, ptr @_ZTV10Relocation, i64 16), ptr %18, align 8
  %19 = getelementptr inbounds i8, ptr %6, i64 32
  store ptr null, ptr %19, align 8
  %20 = getelementptr inbounds i8, ptr %6, i64 40
  store i32 0, ptr %20, align 8
  call void @llvm.lifetime.start.p0(i64 64, ptr nonnull %5)
  call void @llvm.memcpy.p0.p0.i64(ptr noundef nonnull align 8 dereferenceable(21) %5, ptr noundef nonnull align 8 dereferenceable(21) %6, i64 21, i1 false)
  %21 = getelementptr inbounds i8, ptr %5, i64 24
  %22 = load ptr, ptr getelementptr inbounds inrange(-32, 56) (i8, ptr @_ZTV10Relocation, i64 32), align 8
  call void %22(ptr noundef nonnull align 8 dereferenceable(20) %18, ptr noundef nonnull align 8 dereferenceable(40) %21) #8
  call void @_ZN9Assembler3leaE8Register7Address(ptr noundef nonnull align 8 dereferenceable(40) %12, i32 0, ptr noundef nonnull %5) #8
  call void @llvm.lifetime.end.p0(i64 64, ptr nonnull %5)
  %23 = icmp eq ptr %2, null
  br i1 %23, label %24, label %38

24:                                               ; preds = %4
  %.not.i.i = icmp eq ptr %1, null
  %25 = select i1 %.not.i.i, i32 0, i32 7
  call void @_ZN14AddressLiteralC2EPhN9relocInfo9relocTypeE(ptr noundef nonnull align 8 dereferenceable(56) %7, ptr noundef %1, i32 noundef %25) #8
  %26 = load ptr, ptr %10, align 8
  %27 = load ptr, ptr %7, align 8
  %28 = getelementptr inbounds i8, ptr %27, i64 16
  %29 = load ptr, ptr %28, align 8
  call void %29(ptr noundef nonnull align 8 dereferenceable(20) %7, ptr noundef nonnull align 8 dereferenceable(40) %8) #8
  %30 = getelementptr inbounds i8, ptr %8, i64 40
  %31 = getelementptr inbounds i8, ptr %7, i64 40
  call void @llvm.memcpy.p0.p0.i64(ptr noundef nonnull align 8 dereferenceable(16) %30, ptr noundef nonnull align 8 dereferenceable(16) %31, i64 16, i1 false)
  call void @_ZN14MacroAssembler7jump_ccEN9Assembler9ConditionE14AddressLiteral8Register(ptr noundef nonnull align 8 dereferenceable(40) %26, i32 noundef 6, ptr noundef nonnull %8, i32 -1) #8
  %32 = load ptr, ptr %10, align 8
  call void @_ZN9Assembler4cmpqE8RegisterS0_(ptr noundef nonnull align 8 dereferenceable(40) %32, i32 6, i32 0) #8
  %33 = load ptr, ptr %10, align 8
  %34 = load ptr, ptr %7, align 8
  %35 = getelementptr inbounds i8, ptr %34, i64 16
  %36 = load ptr, ptr %35, align 8
  call void %36(ptr noundef nonnull align 8 dereferenceable(20) %7, ptr noundef nonnull align 8 dereferenceable(40) %9) #8
  %37 = getelementptr inbounds i8, ptr %9, i64 40
  call void @llvm.memcpy.p0.p0.i64(ptr noundef nonnull align 8 dereferenceable(16) %37, ptr noundef nonnull align 8 dereferenceable(16) %31, i64 16, i1 false)
  call void @_ZN14MacroAssembler7jump_ccEN9Assembler9ConditionE14AddressLiteral8Register(ptr noundef nonnull align 8 dereferenceable(40) %33, i32 noundef 3, ptr noundef nonnull %9, i32 -1) #8
  br label %42

38:                                               ; preds = %4
  %39 = load ptr, ptr %10, align 8
  call void @_ZN9Assembler3jccENS_9ConditionER5Labelb(ptr noundef nonnull align 8 dereferenceable(40) %39, i32 noundef 6, ptr noundef nonnull align 8 dereferenceable(33) %2, i1 noundef zeroext true) #8
  %40 = load ptr, ptr %10, align 8
  call void @_ZN9Assembler4cmpqE8RegisterS0_(ptr noundef nonnull align 8 dereferenceable(40) %40, i32 6, i32 0) #8
  %41 = load ptr, ptr %10, align 8
  call void @_ZN9Assembler3jccENS_9ConditionER5Labelb(ptr noundef nonnull align 8 dereferenceable(40) %41, i32 noundef 3, ptr noundef nonnull align 8 dereferenceable(33) %2, i1 noundef zeroext true) #8
  br label %42

42:                                               ; preds = %38, %24
  ret void
}